((dp0
I0
cnumpy.core.multiarray
scalar
p1
(cnumpy
dtype
p2
(S'f8'
p3
I0
I1
tp4
Rp5
(I3
S'<'
p6
NNNI-1
I-1
I0
tp7
bS'_\xf1\xc5\xa7\x15\xed\xc5?'
p8
tp9
Rp10
s(dp11
I0
g1
(g5
S'fffff\xa6\xed?'
p12
tp13
Rp14
s(dp15
I0
g1
(g5
S'\xde\xdd]S5\x9d\xb3?'
p16
tp17
Rp18
s(dp19
I0
g1
(g5
S'\xef\xee\xee\xee\xee\xee\xee?'
p20
tp21
Rp22
stp23
.